Certificate:
    Data:
        Version: 3 (0x2)
        Serial Number:
            f3:20:b7:b0:d1:d7:73:60:eb:6e:5b:33:82:7e:7b:48
        Signature Algorithm: sha256WithRSAEncryption
        Issuer: CN=GLS Training Classroom Certificate Authority
        Validity
            Not Before: Sep  7 10:53:40 2023 GMT
            Not After : Dec 10 10:53:40 2025 GMT
        Subject: CN=server
        Subject Public Key Info:
            Public Key Algorithm: rsaEncryption
                Public-Key: (2048 bit)
                Modulus:
                    00:c1:0d:66:d3:fe:75:3b:2d:61:44:4b:f5:9f:93:
                    1d:21:cf:5e:9d:a1:4b:d4:68:e3:5d:d7:6a:b3:e7:
                    f9:b2:a9:73:b6:cf:70:09:12:80:4e:6a:07:e5:b2:
                    e4:6f:49:e8:cf:a4:62:00:93:40:25:ab:e2:e6:d9:
                    6f:ba:da:48:17:32:ec:01:1e:30:19:9b:33:3f:e2:
                    72:41:76:28:2f:39:fc:4d:59:d6:3c:cd:98:02:78:
                    db:5c:47:db:02:e1:bb:42:f1:d3:8d:6e:5f:bd:d4:
                    ec:9b:b3:41:87:f0:6c:a8:da:bd:bf:3a:74:7f:4a:
                    9d:b4:42:b2:0f:96:69:a4:4c:f4:78:c4:c1:fd:36:
                    95:0f:87:bb:40:5d:c2:98:8e:f3:49:d2:2d:2b:56:
                    32:76:53:5c:6b:cd:c8:ce:56:a3:3b:e7:14:79:08:
                    a8:84:9a:8a:be:de:27:54:8f:36:be:39:b1:11:f3:
                    18:12:fe:e7:12:e5:16:6a:6c:20:72:4d:be:b6:49:
                    00:b6:c7:90:a7:e7:fe:cc:e4:66:91:ad:76:a7:c2:
                    31:b4:63:05:da:b1:60:34:a3:f6:17:c3:06:7a:e0:
                    b9:fd:ec:db:60:33:b8:9d:2b:d6:6c:0e:98:05:69:
                    41:ef:82:55:e7:63:db:bf:55:ce:99:49:2c:0a:5c:
                    aa:59
                Exponent: 65537 (0x10001)
        X509v3 extensions:
            X509v3 Basic Constraints: 
                CA:FALSE
            X509v3 Subject Key Identifier: 
                7F:97:7B:A3:DF:78:6B:72:2B:EC:D1:A8:39:9B:A7:FB:0E:B7:89:CF
            X509v3 Authority Key Identifier: 
                keyid:47:23:8F:42:3C:2E:FC:71:A1:E3:23:4D:64:90:64:BF:1D:8A:BA:BF
                DirName:/CN=GLS Training Classroom Certificate Authority
                serial:22:E6:0F:C5:8D:9C:47:9B:A0:52:85:0D:79:EA:0F:46:42:67:E8:F5
            X509v3 Extended Key Usage: 
                TLS Web Server Authentication
            X509v3 Key Usage: 
                Digital Signature, Key Encipherment
            X509v3 Subject Alternative Name: 
                DNS:server
    Signature Algorithm: sha256WithRSAEncryption
    Signature Value:
        22:fe:ae:77:56:dc:e4:5a:aa:08:8f:3c:0f:5c:a2:02:3c:99:
        ab:0b:f2:00:1d:50:e5:da:82:3f:e6:60:c6:64:63:f4:94:32:
        d7:d9:e3:4e:90:80:b1:1a:49:1f:ce:01:7a:2d:51:21:70:42:
        6e:bb:59:2c:78:96:5a:b0:b6:a1:b6:fe:5a:7a:80:ad:8c:bf:
        e9:53:90:8e:97:35:e0:b2:bf:c5:ea:b8:d1:dc:68:90:fa:99:
        59:f7:56:c3:18:71:dc:fd:36:52:d1:10:07:84:a3:3e:93:fc:
        a3:9a:a2:c2:c8:1f:49:0a:6f:3a:21:af:7d:4c:b0:51:f2:f8:
        4a:32:26:4a:ee:76:74:6b:fe:94:28:47:88:ee:b3:e6:f0:ec:
        3d:69:1c:6b:2b:99:bd:68:c8:0d:39:34:68:c0:08:db:e4:b0:
        88:4a:af:5d:5c:e4:f7:dc:ce:4c:3e:85:67:3b:a8:e1:95:e1:
        c8:02:9b:81:58:c0:81:c0:ff:4d:93:16:71:fd:9a:28:d5:67:
        0b:a8:74:f1:93:02:82:a2:2b:08:9d:5a:5e:73:72:26:8f:de:
        2b:84:54:78:d5:9b:0c:68:d8:54:27:58:f9:fc:9f:4e:6a:b9:
        18:91:23:53:42:17:12:b6:05:93:14:df:70:67:36:0b:50:b8:
        cc:d7:3b:59
-----BEGIN CERTIFICATE-----
MIIDqjCCApKgAwIBAgIRAPMgt7DR13Ng625bM4J+e0gwDQYJKoZIhvcNAQELBQAw
NzE1MDMGA1UEAwwsR0xTIFRyYWluaW5nIENsYXNzcm9vbSBDZXJ0aWZpY2F0ZSBB
dXRob3JpdHkwHhcNMjMwOTA3MTA1MzQwWhcNMjUxMjEwMTA1MzQwWjARMQ8wDQYD
VQQDDAZzZXJ2ZXIwggEiMA0GCSqGSIb3DQEBAQUAA4IBDwAwggEKAoIBAQDBDWbT
/nU7LWFES/Wfkx0hz16doUvUaONd12qz5/myqXO2z3AJEoBOagflsuRvSejPpGIA
k0Alq+Lm2W+62kgXMuwBHjAZmzM/4nJBdigvOfxNWdY8zZgCeNtcR9sC4btC8dON
bl+91Oybs0GH8Gyo2r2/OnR/Sp20QrIPlmmkTPR4xMH9NpUPh7tAXcKYjvNJ0i0r
VjJ2U1xrzcjOVqM75xR5CKiEmoq+3idUjza+ObER8xgS/ucS5RZqbCByTb62SQC2
x5Cn5/7M5GaRrXanwjG0YwXasWA0o/YXwwZ64Ln97NtgM7idK9ZsDpgFaUHvglXn
Y9u/Vc6ZSSwKXKpZAgMBAAGjgdYwgdMwCQYDVR0TBAIwADAdBgNVHQ4EFgQUf5d7
o994a3Ir7NGoOZun+w63ic8wcgYDVR0jBGswaYAURyOPQjwu/HGh4yNNZJBkvx2K
ur+hO6Q5MDcxNTAzBgNVBAMMLEdMUyBUcmFpbmluZyBDbGFzc3Jvb20gQ2VydGlm
aWNhdGUgQXV0aG9yaXR5ghQi5g/FjZxHm6BShQ156g9GQmfo9TATBgNVHSUEDDAK
BggrBgEFBQcDATALBgNVHQ8EBAMCBaAwEQYDVR0RBAowCIIGc2VydmVyMA0GCSqG
SIb3DQEBCwUAA4IBAQAi/q53VtzkWqoIjzwPXKICPJmrC/IAHVDl2oI/5mDGZGP0
lDLX2eNOkICxGkkfzgF6LVEhcEJuu1kseJZasLahtv5aeoCtjL/pU5COlzXgsr/F
6rjR3GiQ+plZ91bDGHHc/TZS0RAHhKM+k/yjmqLCyB9JCm86Ia99TLBR8vhKMiZK
7nZ0a/6UKEeI7rPm8Ow9aRxrK5m9aMgNOTRowAjb5LCISq9dXOT33M5MPoVnO6jh
leHIApuBWMCBwP9NkxZx/Zoo1WcLqHTxkwKCoisInVpec3Imj94rhFR41ZsMaNhU
J1j5/J9OarkYkSNTQhcStgWTFN9wZzYLULjM1ztZ
-----END CERTIFICATE-----
