Certificate:
    Data:
        Version: 3 (0x2)
        Serial Number:
            c2:df:26:a0:3f:90:2d:c3:48:84:42:2a:b4:3a:4c:b2
        Signature Algorithm: sha256WithRSAEncryption
        Issuer: CN=GLS Training Classroom Certificate Authority
        Validity
            Not Before: Sep  7 10:56:44 2023 GMT
            Not After : Sep  6 10:56:44 2033 GMT
        Subject: CN=vpn-client
        Subject Public Key Info:
            Public Key Algorithm: rsaEncryption
                Public-Key: (2048 bit)
                Modulus:
                    00:b9:cc:19:7a:76:a9:98:ed:ac:fe:dd:8d:3a:b4:
                    e2:b1:40:5f:67:4a:c0:20:2e:3a:c1:a8:a7:f6:bc:
                    2c:0c:ba:e0:9b:03:d7:06:64:c0:29:d7:f6:ca:6c:
                    25:e0:c3:dc:1e:3d:6e:c1:90:9c:71:2b:55:94:9a:
                    75:7e:6b:0a:b6:0e:cd:63:fa:ba:85:1b:9a:b3:e0:
                    ba:35:43:01:3a:25:1b:0f:0c:e5:c5:64:da:38:b6:
                    68:1d:60:28:1c:4a:e1:98:21:f6:31:9a:8d:c4:90:
                    ea:a6:82:0a:b2:05:de:ff:f1:af:cc:f2:ab:36:c7:
                    d2:0f:33:f0:34:23:96:5a:04:fb:f0:7a:56:f8:fb:
                    d6:3e:95:76:51:ab:47:13:23:b7:3d:89:9c:ed:ea:
                    0f:22:6a:c3:ed:40:f1:82:7c:bd:c7:0d:4b:fb:06:
                    3f:1a:00:db:18:aa:d4:7a:f3:07:25:b7:1d:2f:ab:
                    71:2d:b5:46:dc:06:f2:42:02:2a:24:99:f3:b0:f5:
                    2d:90:d4:17:82:d9:c8:db:40:06:45:21:4c:8b:91:
                    1a:bf:03:46:98:40:49:70:9c:04:f4:06:52:79:d6:
                    f1:41:c4:8c:8e:55:99:33:19:e0:2f:58:ad:ea:97:
                    90:8a:ae:d9:e4:d3:bf:e6:10:67:e7:29:e8:bc:a5:
                    a8:53
                Exponent: 65537 (0x10001)
        X509v3 extensions:
            X509v3 Basic Constraints: 
                CA:FALSE
            X509v3 Subject Key Identifier: 
                84:51:0E:47:03:6F:8F:31:CB:CF:05:79:36:49:10:D9:C4:43:FA:5C
            X509v3 Authority Key Identifier: 
                keyid:47:23:8F:42:3C:2E:FC:71:A1:E3:23:4D:64:90:64:BF:1D:8A:BA:BF
                DirName:/CN=GLS Training Classroom Certificate Authority
                serial:22:E6:0F:C5:8D:9C:47:9B:A0:52:85:0D:79:EA:0F:46:42:67:E8:F5
            X509v3 Extended Key Usage: 
                TLS Web Client Authentication
            X509v3 Key Usage: 
                Digital Signature
    Signature Algorithm: sha256WithRSAEncryption
    Signature Value:
        5d:a4:ec:67:1a:9c:89:42:75:c3:df:ef:d8:01:96:67:6d:15:
        e6:b8:b0:e2:c8:62:30:b2:0e:09:51:6f:af:50:d5:da:14:0f:
        88:2e:fe:e6:8c:2d:db:b2:75:8d:3d:6b:11:84:03:db:33:c3:
        00:88:7b:c0:99:3c:ee:0b:03:12:21:a8:b5:ca:d2:19:74:be:
        e0:f8:dc:20:82:db:91:88:0d:63:a7:94:cf:0b:e1:7f:03:78:
        97:34:cc:8c:e9:3d:73:1e:48:d0:4e:38:37:9a:28:6b:5c:f7:
        da:13:38:91:ff:7e:20:d7:e5:8d:d4:d6:77:48:5e:3b:e9:51:
        5f:80:3f:82:1f:88:56:87:20:32:67:77:b0:ab:43:0b:d7:d9:
        d0:d6:24:56:be:51:d1:35:28:48:72:77:75:9c:00:d4:3f:b2:
        fb:f7:4b:df:65:b6:e9:8d:39:e1:df:f3:8c:d4:98:df:2b:9b:
        69:4d:f4:6b:1a:11:2e:ea:9a:2c:8a:80:18:68:92:e4:23:49:
        28:82:67:5b:dd:ff:ea:9b:ea:93:e4:d1:0c:b5:6c:a1:d5:75:
        6b:f1:4b:99:90:e9:fc:93:07:d8:af:a0:4d:6e:c1:8c:8c:4c:
        b3:51:90:c3:91:aa:b7:6f:f2:7a:ca:da:53:72:a7:d4:dd:79:
        5b:45:5a:9f
-----BEGIN CERTIFICATE-----
MIIDmzCCAoOgAwIBAgIRAMLfJqA/kC3DSIRCKrQ6TLIwDQYJKoZIhvcNAQELBQAw
NzE1MDMGA1UEAwwsR0xTIFRyYWluaW5nIENsYXNzcm9vbSBDZXJ0aWZpY2F0ZSBB
dXRob3JpdHkwHhcNMjMwOTA3MTA1NjQ0WhcNMzMwOTA2MTA1NjQ0WjAVMRMwEQYD
VQQDDAp2cG4tY2xpZW50MIIBIjANBgkqhkiG9w0BAQEFAAOCAQ8AMIIBCgKCAQEA
ucwZenapmO2s/t2NOrTisUBfZ0rAIC46wain9rwsDLrgmwPXBmTAKdf2ymwl4MPc
Hj1uwZCccStVlJp1fmsKtg7NY/q6hRuas+C6NUMBOiUbDwzlxWTaOLZoHWAoHErh
mCH2MZqNxJDqpoIKsgXe//GvzPKrNsfSDzPwNCOWWgT78HpW+PvWPpV2UatHEyO3
PYmc7eoPImrD7UDxgny9xw1L+wY/GgDbGKrUevMHJbcdL6txLbVG3AbyQgIqJJnz
sPUtkNQXgtnI20AGRSFMi5EavwNGmEBJcJwE9AZSedbxQcSMjlWZMxngL1it6peQ
iq7Z5NO/5hBn5ynovKWoUwIDAQABo4HDMIHAMAkGA1UdEwQCMAAwHQYDVR0OBBYE
FIRRDkcDb48xy88FeTZJENnEQ/pcMHIGA1UdIwRrMGmAFEcjj0I8LvxxoeMjTWSQ
ZL8dirq/oTukOTA3MTUwMwYDVQQDDCxHTFMgVHJhaW5pbmcgQ2xhc3Nyb29tIENl
cnRpZmljYXRlIEF1dGhvcml0eYIUIuYPxY2cR5ugUoUNeeoPRkJn6PUwEwYDVR0l
BAwwCgYIKwYBBQUHAwIwCwYDVR0PBAQDAgeAMA0GCSqGSIb3DQEBCwUAA4IBAQBd
pOxnGpyJQnXD3+/YAZZnbRXmuLDiyGIwsg4JUW+vUNXaFA+ILv7mjC3bsnWNPWsR
hAPbM8MAiHvAmTzuCwMSIai1ytIZdL7g+NwggtuRiA1jp5TPC+F/A3iXNMyM6T1z
HkjQTjg3mihrXPfaEziR/34g1+WN1NZ3SF476VFfgD+CH4hWhyAyZ3ewq0ML19nQ
1iRWvlHRNShIcnd1nADUP7L790vfZbbpjTnh3/OM1JjfK5tpTfRrGhEu6posioAY
aJLkI0kogmdb3f/qm+qT5NEMtWyh1XVr8UuZkOn8kwfYr6BNbsGMjEyzUZDDkaq3
b/J6ytpTcqfU3XlbRVqf
-----END CERTIFICATE-----
